(dp0
I0
(dp1
I0
(dp2
S'text'
p3
Vrt AT_USER yes. and this absolutely drives me nuts because -it feeds into this poisonous fantasy of the worthy poor who forego all c\u2026
p4
sS'tweet'
p5
VRT @Iron_Spike: YES. And this absolutely drives me NUTS because \u000a\u000a-It feeds into this poisonous fantasy of The Worthy Poor who forego all c\u2026
p6
sS'label'
p7
S'negative'
p8
ssI1
(dp9
g3
Vrt AT_USER if you're poor, how can you eat a nice meal, save it. if you have chronic illness, how dare you socialise, rest. if you have men\u2026
p10
sg5
VRT @weeny: If you're poor, how can you eat a nice meal, save it. If you have chronic illness, how dare you socialise, rest. If you have men\u2026
p11
sg7
S'positive'
p12
ssI2
(dp13
g3
Vhow to get the iphone 6s ... - - URL applegiveaway blog freeiphone6s freeiphone7\u2026 URL
p14
sg5
VHOW TO #Get THE #Iphone 6S ... -  - https://t.co/08WvNoKL2B\u000a#AppleGiveaway #Blog #FreeIphone6s #FreeIphone7\u2026 https://t.co/9oKSNMJNHL
p15
sg7
S'neutral'
p16
ssI3
(dp17
g3
VAT_USER AT_USER also i am not able to log into my apple id via my iphone!! it just reloads the same login screen ! please fix this !
p18
sg5
V@AppleSupport @Apple Also I am not able to Log into my Apple ID via my iPhone!! It just reloads the same login screen ! PLEASE FIX THIS !
p19
sg7
g12
ssI4
(dp20
g3
Vrt AT_USER AT_USER AT_USER AT_USER AT_USER kyle stuck with a iphone 6, drives a saturn, pop xans and going to jail next mon\u2026
p21
sg5
VRT @jerrywill24: @k_tosado23 @Malik__29 @aalexx08 @cbs2092 Kyle stuck with a iPhone 6, drives a Saturn, pop xans and going to jail next mon\u2026
p22
sg7
g8
ssI5
(dp23
g3
Vrt AT_USER if you want me to retweet ur pics , soundcloud\U0001f3a4 , tweets , arts , youtube any other thing on 250+ biggest twit\u2026
p24
sg5
VRT @coinlesslife: IF  You WANT ME To  RETWEET  UR  PICS , SOUNDCLOUD\U0001f3a4 , TWEETS ,   ARTs , YOUTUBE  ANY OTHER  THING ON  250+  BIGGEST  TWIT\u2026
p25
sg7
g16
ssI6
(dp26
g3
Vdon't recall-kard" URL (joox)
p27
sg5
V"Don't Recall-KARD" https://t.co/XOJzMzlBSJ (#JOOX)
p28
sg7
g16
ssI7
(dp29
g3
Vrt AT_USER 23. the iphone x's facial recognition technology. 100racistthings URL
p30
sg5
VRT @TuckerCarlson: 23. The iPhone X's facial recognition technology. #100RacistThings https://t.co/xn9m3qKQua
p31
sg7
g16
ssI8
(dp32
g3
Vhow to get the iphone 6s plus for free | debarrtv - click here to find your cell phone or accessories *********\u2026 URL
p33
sg5
VHOW TO GET THE IPHONE 6S PLUS FOR FREE | DeBarrTV -    \u000aClick Here to Find Your Cell Phone or Accessories\u000a*********\u2026 https://t.co/cJKQUNRMAR
p34
sg7
g12
ssI9
(dp35
g3
Vthe latest the dog star comics daily! URL applewatch iphone
p36
sg5
VThe latest The Dog Star Comics Daily! https://t.co/Pd7G0CLfvX #applewatch #iphone
p37
sg7
g16
ssI10
(dp38
g3
Vrt AT_USER bought iphone 8 for the portrait photo feature so to take nice photos of her. i have the phone now but not her anymore.
p39
sg5
VRT @louisliaw: Bought iPhone 8 for the portrait photo feature so to take nice photos of her. I have the phone now but not her anymore.
p40
sg7
g12
ssI11
(dp41
g3
Vhow to get the iphone 6s ... - - URL applegiveaway blog freeiphone6s freeiphone7\u2026 URL
p42
sg5
VHOW TO #Get THE #Iphone 6S ... -  - https://t.co/t5Zap2dbK5\u000a#AppleGiveaway #Blog #FreeIphone6s #FreeIphone7\u2026 https://t.co/HN7f6WRdy5
p43
sg7
g16
ssI12
(dp44
g3
Vrt AT_USER if you had a iphone when youtube was like this you a real g URL
p45
sg5
VRT @NCommentarys: If you had a iPhone when Youtube was like this you a real g https://t.co/1FumDJmA5p
p46
sg7
g16
ssI13
(dp47
g3
Vgot the iphone 8plus and she dumb thic
p48
sg5
VGot the iPhone 8plus and she DUMB THIC
p49
sg7
g8
ssI14
(dp50
g3
Vhow to track santa's journey today on iphone and ipad URL macumors mac
p51
sg5
VHow to Track Santa's Journey Today on iPhone and iPad https://t.co/fQn5pLyNIb #macumors #mac
p52
sg7
g16
ssI15
(dp53
g3
Vbest iphone x cases \u2013 november 2017 URL
p54
sg5
VBest iPhone X Cases \u2013 November 2017 https://t.co/7yoNWAgegR
p55
sg7
g12
ssI16
(dp56
g3
Vgal is like me. we say iphone instead of just phone. i love us. URL
p57
sg5
VGal is like me. We say iPhone instead of just phone. I love us. https://t.co/b1lSjskscj
p58
sg7
g12
ssI17
(dp59
g3
Vhow to track santa's journey today on iphone and ipad URL
p60
sg5
VHow to Track Santa's Journey Today on iPhone and iPad https://t.co/kEffSzo0AR
p61
sg7
g16
ssI18
(dp62
g3
VAT_USER we want to help you keep your iphone up to date. start by following the steps here: URL
p63
sg5
V@cait_mundell We want to help you keep your iPhone up to date. Start by following the steps here: https://t.co/p76Gaa97kg
p64
sg7
g12
ssI19
(dp65
g3
Vrt AT_USER nothing will beat xiumin using an iphone in a cbx video stream when exo endorsed for samsung and him revealing that he does\u2026
p66
sg5
VRT @TheElyXIUn: Nothing will beat Xiumin using an iPhone in a CBX video stream when EXO endorsed for Samsung and him revealing that he does\u2026
p67
sg7
g8
ssI20
(dp68
g3
Vrt AT_USER if android could facetime iphone users URL
p69
sg5
VRT @HowiEazy: If Android could FaceTime iPhone users https://t.co/pOxX1NtUyD
p70
sg7
g16
ssI21
(dp71
g3
Vrt AT_USER how to track santa\u2019s journey today on iphone and ipad URL by AT_USER URL
p72
sg5
VRT @MacRumors: How to Track Santa\u2019s Journey Today on iPhone and iPad https://t.co/qKeqspyJHO by @mbrsrd https://t.co/cJ7uOWY00E
p73
sg7
g16
ssI22
(dp74
g3
VAT_USER nada... got me iphone x
p75
sg5
V@SamsungMobileUS nada... got me iphone x
p76
sg7
g16
ssI23
(dp77
g3
Vhow to track santa's journey today on iphone and ipad URL
p78
sg5
VHow to Track Santa's Journey Today on iPhone and iPad https://t.co/jOqin0GuJx
p79
sg7
g16
ssI24
(dp80
g3
Vrt AT_USER so it's true apple intentionally slow down old iphones. proof: my iphone 6 was bought 3years ago and recently got really s\u2026
p81
sg5
VRT @sam_siruomu: So it's true Apple intentionally slow down old iPhones. Proof: My iPhone 6 was bought 3years ago and recently got really s\u2026
p82
sg7
g8
ssI25
(dp83
g3
Vrt AT_USER for sale: \U0001f579 (contact me for pictures and more info) xbox one - $75 ps4 - $75 ps4 scuf - $30 xbox one scuf - $30 elgato hd 6\u2026
p84
sg5
VRT @Red_MJDz: For Sale: \U0001f579 \u000a(Contact me for pictures and more info)\u000a\u000aXbox One - $75\u000aPS4 - $75\u000aPS4 Scuf - $30\u000aXbox One Scuf - $30\u000aElgato HD 6\u2026
p85
sg7
g16
ssI26
(dp86
g3
V\U0001f481\U0001f3fd\u200d\u2640\ufe0f\U0001f481\U0001f3fd\u200d\u2640\ufe0f\U0001f481\U0001f3fd\u200d\u2640\ufe0f rt AT_USER don\u2019t tweet me if you don\u2019t have the iphone x \U0001f92b\U0001f92d\U0001f485\U0001f3fe
p87
sg5
V\U0001f481\U0001f3fd\u200d\u2640\ufe0f\U0001f481\U0001f3fd\u200d\u2640\ufe0f\U0001f481\U0001f3fd\u200d\u2640\ufe0f RT @lilNattyDread: Don\u2019t tweet me if you don\u2019t have the iPhone X \U0001f92b\U0001f92d\U0001f485\U0001f3fe
p88
sg7
g16
ssI27
(dp89
g3
Vrt AT_USER what everyone's missing about the new iphone conspiracy URL
p90
sg5
VRT @Inc: What everyone's missing about the new iPhone conspiracy https://t.co/ZvLHGcl415
p91
sg7
g16
ssI28
(dp92
g3
Vrt AT_USER the most beautiful thing in christmas is a tree, family and giving gifts knowing the gifts i keep in memory are symbol\u2026
p93
sg5
VRT @Chris_Larson8: The most beautiful thing in #Christmas is a Tree, family and Giving gifts Knowing the #gifts I keep in memory are symbol\u2026
p94
sg7
g12
ssI29
(dp95
g3
Vi'm annoyed i been waiting a whole damn month for my iphone x to come cause it's on back order, shits annoying. i w\u2026 URL
p96
sg5
VI'm annoyed I been waiting a whole damn month for my iPhone X to come cause it's on back order, shits annoying. I w\u2026 https://t.co/h5aaBkKc02
p97
sg7
g8
ssI30
(dp98
g3
Viphone x: how apple makes sure your christmas delivery isn\u2019t ruined URL
p99
sg5
ViPhone X: How Apple makes sure your Christmas delivery isn\u2019t ruined https://t.co/t2Y7dvkg3X
p100
sg7
g16
ssI31
(dp101
g3
Vtop apple blogger at the iphone the iphone x is the high-quality element that has passed off to the iphone for the\u2026 URL
p102
sg5
VTop Apple blogger at the iPhone The iPhone X is the high-quality element that has passed off to the iPhone for the\u2026 https://t.co/Bxl4femir5
p103
sg7
g12
ssI32
(dp104
g3
Vthinking bout ordering the iphone 8 \U0001f914 and giving this 6plus to my son
p105
sg5
VThinking bout ordering the iPhone 8 \U0001f914 and giving this 6plus to my son
p106
sg7
g16
ssI33
(dp107
g3
Vhow to track santa's journey today on iphone and ipad URL technology macrumors
p108
sg5
VHow to Track Santa's Journey Today on iPhone and iPad https://t.co/DAiJE1wu4G #technology macrumors
p109
sg7
g16
ssI34
(dp110
g3
Vrt AT_USER iphone meets AT_USER red dragon skin. URL
p111
sg5
VRT @back2mach: iPhone meets @dbrand red dragon skin. https://t.co/7F3XdnyIIS
p112
sg7
g16
sss.